target datalayout = "e-m:e-p270:32:32-p271:32:32-p272:64:64-i64:64-i128:128-f80:128-n8:16:32:64-S128"
target triple = "x86_64-pc-linux-gnu"

%struct.QMetaObject = type { %"struct.QMetaObject::Data" }
%"struct.QMetaObject::Data" = type { %"struct.QMetaObject::SuperData", ptr, ptr, ptr, ptr, ptr, ptr }
%"struct.QMetaObject::SuperData" = type { ptr }
%class.QString = type { %struct.QArrayDataPointer }
%struct.QArrayDataPointer = type { ptr, ptr, i64 }

@.str.6 = private unnamed_addr constant [8 x i8] c"UNKNOWN\00", align 1
@.str.13 = private unnamed_addr constant [8 x i8] c"A \E2\86\94 B\00", align 1
@.str.14 = private unnamed_addr constant [8 x i8] c"A \E2\86\92 B\00", align 1
@.str.15 = private unnamed_addr constant [8 x i8] c"B \E2\86\92 A\00", align 1
@.str.16 = private unnamed_addr constant [10 x i8] c"A \E2\86\94 Any\00", align 1
@.str.17 = private unnamed_addr constant [10 x i8] c"A \E2\86\92 Any\00", align 1
@.str.18 = private unnamed_addr constant [10 x i8] c"Any \E2\86\92 A\00", align 1
@.str.19 = private unnamed_addr constant [10 x i8] c"Any \E2\86\94 B\00", align 1
@.str.20 = private unnamed_addr constant [10 x i8] c"Any \E2\86\92 B\00", align 1
@.str.21 = private unnamed_addr constant [10 x i8] c"B \E2\86\92 Any\00", align 1
@_ZN7QObject16staticMetaObjectE = external global %struct.QMetaObject, align 8

; Function Attrs: inlinehint mustprogress null_pointer_is_valid sspstrong uwtable
define linkonce_odr void @_ZN7QObject2trEPKcS1_i(ptr dead_on_unwind noalias writable sret(%class.QString) align 8 %0, ptr noundef %1, ptr noundef %2, i32 noundef %3) #8 comdat align 2 {
  %5 = alloca ptr, align 8
  %6 = alloca ptr, align 8
  %7 = alloca ptr, align 8
  %8 = alloca i32, align 4
  store ptr %0, ptr %5, align 8
  store ptr %1, ptr %6, align 8
  store ptr %2, ptr %7, align 8
  store i32 %3, ptr %8, align 4
  %9 = load ptr, ptr %6, align 8
  %10 = load ptr, ptr %7, align 8
  %11 = load i32, ptr %8, align 4
  call void @_ZNK11QMetaObject2trEPKcS1_i(ptr dead_on_unwind writable sret(%class.QString) align 8 %0, ptr noundef align 8 dereferenceable_or_null(56) @_ZN7QObject16staticMetaObjectE, ptr noundef %9, ptr noundef %10, i32 noundef %11)
  ret void
}

; Function Attrs: mustprogress null_pointer_is_valid sspstrong uwtable
define void @_ZN12FilterAction19actionDirectionNameENS_15ActionDirectionE(ptr dead_on_unwind noalias writable sret(%class.QString) align 8 %0, i32 noundef %1) #0 align 2 {
  %3 = alloca ptr, align 8
  %4 = alloca i32, align 4
  store ptr %0, ptr %3, align 8
  store i32 %1, ptr %4, align 4
  %5 = load i32, ptr %4, align 4
  switch i32 %5, label %15 [
    i32 0, label %6
    i32 1, label %7
    i32 2, label %8
    i32 3, label %9
    i32 4, label %10
    i32 5, label %11
    i32 6, label %12
    i32 7, label %13
    i32 8, label %14
  ]

6:                                                ; preds = %2
  call void @_ZN7QObject2trEPKcS1_i(ptr dead_on_unwind writable sret(%class.QString) align 8 %0, ptr noundef @.str.13, ptr noundef null, i32 noundef -1)
  br label %16

7:                                                ; preds = %2
  call void @_ZN7QObject2trEPKcS1_i(ptr dead_on_unwind writable sret(%class.QString) align 8 %0, ptr noundef @.str.14, ptr noundef null, i32 noundef -1)
  br label %16

8:                                                ; preds = %2
  call void @_ZN7QObject2trEPKcS1_i(ptr dead_on_unwind writable sret(%class.QString) align 8 %0, ptr noundef @.str.15, ptr noundef null, i32 noundef -1)
  br label %16

9:                                                ; preds = %2
  call void @_ZN7QObject2trEPKcS1_i(ptr dead_on_unwind writable sret(%class.QString) align 8 %0, ptr noundef @.str.16, ptr noundef null, i32 noundef -1)
  br label %16

10:                                               ; preds = %2
  call void @_ZN7QObject2trEPKcS1_i(ptr dead_on_unwind writable sret(%class.QString) align 8 %0, ptr noundef @.str.17, ptr noundef null, i32 noundef -1)
  br label %16

11:                                               ; preds = %2
  call void @_ZN7QObject2trEPKcS1_i(ptr dead_on_unwind writable sret(%class.QString) align 8 %0, ptr noundef @.str.18, ptr noundef null, i32 noundef -1)
  br label %16

12:                                               ; preds = %2
  call void @_ZN7QObject2trEPKcS1_i(ptr dead_on_unwind writable sret(%class.QString) align 8 %0, ptr noundef @.str.19, ptr noundef null, i32 noundef -1)
  br label %16

13:                                               ; preds = %2
  call void @_ZN7QObject2trEPKcS1_i(ptr dead_on_unwind writable sret(%class.QString) align 8 %0, ptr noundef @.str.20, ptr noundef null, i32 noundef -1)
  br label %16

14:                                               ; preds = %2
  call void @_ZN7QObject2trEPKcS1_i(ptr dead_on_unwind writable sret(%class.QString) align 8 %0, ptr noundef @.str.21, ptr noundef null, i32 noundef -1)
  br label %16

15:                                               ; preds = %2
  call void @_ZN7QObject2trEPKcS1_i(ptr dead_on_unwind writable sret(%class.QString) align 8 %0, ptr noundef @.str.6, ptr noundef null, i32 noundef -1)
  br label %16

16:                                               ; preds = %15, %14, %13, %12, %11, %10, %9, %8, %7, %6
  ret void
}