; Function Attrs: mustprogress null_pointer_is_valid sspstrong uwtable
define void @_ZN12FilterAction19actionDirectionNameENS_15ActionDirectionE(ptr dead_on_unwind noalias writable sret(%class.QString) align 8 %0, i32 noundef %1) local_unnamed_addr #0 align 2 {
  %3 = icmp ult i32 %1, 9
  br i1 %3, label %switch.lookup, label %5

switch.lookup:                                    ; preds = %2
  %4 = zext nneg i32 %1 to i64
  %switch.gep = getelementptr inbounds nuw [9 x ptr], ptr @switch.table._ZN12FilterAction19actionDirectionNameENS_15ActionDirectionE, i64 0, i64 %4
  %switch.load = load ptr, ptr %switch.gep, align 8
  br label %5

5:                                                ; preds = %2, %switch.lookup
  %.str.6.sink = phi ptr [ %switch.load, %switch.lookup ], [ @.str.6, %2 ]
  tail call void @_ZNK11QMetaObject2trEPKcS1_i(ptr dead_on_unwind writable sret(%class.QString) align 8 %0, ptr noundef nonnull align 8 dereferenceable_or_null(56) @_ZN7QObject16staticMetaObjectE, ptr noundef nonnull %.str.6.sink, ptr noundef null, i32 noundef -1)
  ret void
}